target datalayout = "e-m:e-p270:32:32-p271:32:32-p272:64:64-i64:64-i128:128-f80:128-n8:16:32:64-S128"
target triple = "x86_64-unknown-linux-gnu"

%"class.absl::FixedArray" = type { %"class.absl::FixedArray<testing::ThrowingValue<testing::TypeSpec::kEverythingThrows>, 25>::Storage" }
%"class.absl::FixedArray<testing::ThrowingValue<testing::TypeSpec::kEverythingThrows>, 25>::Storage" = type { %"class.absl::FixedArray<testing::ThrowingValue<testing::TypeSpec::kEverythingThrows>, 25>::NonEmptyInlinedStorage", %"class.absl::container_internal::CompressedTuple", ptr }
%"class.absl::FixedArray<testing::ThrowingValue<testing::TypeSpec::kEverythingThrows>, 25>::NonEmptyInlinedStorage" = type { [100 x i8] }
%"class.absl::container_internal::CompressedTuple" = type { %"struct.absl::container_internal::internal_compressed_tuple::CompressedTupleImpl" }
%"struct.absl::container_internal::internal_compressed_tuple::CompressedTupleImpl" = type { %"struct.absl::container_internal::internal_compressed_tuple::Storage" }
%"struct.absl::container_internal::internal_compressed_tuple::Storage" = type { i64 }
%"class.testing::ThrowingValue" = type { i32 }
%class.anon = type { i8 }
%"class.std::tuple.96" = type { %"struct.std::_Tuple_impl.97" }
%"struct.std::_Tuple_impl.97" = type { %"struct.std::_Head_base.98" }
%"struct.std::_Head_base.98" = type { ptr }
%"class.testing::exceptions_internal::ExceptionSafetyTestBuilder.109" = type { %"class.testing::exceptions_internal::DefaultFactory", %class.anon, %"class.std::tuple.96" }
%"class.testing::exceptions_internal::DefaultFactory" = type { %"class.absl::FixedArray" }

; Function Attrs: mustprogress nounwind uwtable
define linkonce_odr dso_local void @_ZNSt15__new_allocatorIN7testing13ThrowingValueILNS0_8TypeSpecE0EEEED2Ev(ptr noundef nonnull align 1 dereferenceable(1) %this) unnamed_addr #7 comdat align 2 {
entry:
  %this.addr = alloca ptr, align 8
  store ptr %this, ptr %this.addr, align 8
  ret void
}

; Function Attrs: mustprogress nounwind uwtable
define linkonce_odr dso_local void @_ZNSaIN7testing13ThrowingValueILNS_8TypeSpecE0EEEED2Ev(ptr noundef nonnull align 1 dereferenceable(1) %this) unnamed_addr #7 comdat align 2 {
entry:
  %this.addr = alloca ptr, align 8
  store ptr %this, ptr %this.addr, align 8
  %this1 = load ptr, ptr %this.addr, align 8
  call void @_ZNSt15__new_allocatorIN7testing13ThrowingValueILNS0_8TypeSpecE0EEEED2Ev(ptr noundef nonnull align 1 dereferenceable(1) %this1) #3
  ret void
}

; Function Attrs: mustprogress nounwind uwtable
define linkonce_odr dso_local void @_ZN4absl18container_internal25internal_compressed_tuple7StorageISaIN7testing13ThrowingValueILNS3_8TypeSpecE0EEEELm1ELb1EED2Ev(ptr noundef nonnull align 1 dereferenceable(1) %this) unnamed_addr #7 comdat align 2 {
entry:
  %this.addr = alloca ptr, align 8
  store ptr %this, ptr %this.addr, align 8
  %this1 = load ptr, ptr %this.addr, align 8
  call void @_ZNSaIN7testing13ThrowingValueILNS_8TypeSpecE0EEEED2Ev(ptr noundef nonnull align 1 dereferenceable(1) %this1) #3
  ret void
}

; Function Attrs: mustprogress nounwind uwtable
define linkonce_odr dso_local void @_ZN7testing19exceptions_internal13TrackedObjectD2Ev(ptr noundef nonnull align 1 dereferenceable(1) %this) unnamed_addr #7 comdat align 2 personality ptr @__gxx_personality_v0 {
entry:
  %this.addr = alloca ptr, align 8
  store ptr %this, ptr %this.addr, align 8
  %this1 = load ptr, ptr %this.addr, align 8
  invoke void @_ZN7testing19exceptions_internal18ConstructorTracker16ObjectDestructedEPv(ptr noundef %this1)
          to label %invoke.cont unwind label %terminate.lpad

invoke.cont:                                      ; preds = %entry
  ret void

terminate.lpad:                                   ; preds = %entry
  %0 = landingpad { ptr, i32 }
          catch ptr null
  %1 = extractvalue { ptr, i32 } %0, 0
  call void @__clang_call_terminate(ptr %1) #18
  unreachable
}

; Function Attrs: mustprogress nounwind uwtable
define linkonce_odr dso_local noundef nonnull align 8 dereferenceable(8) ptr @_ZNKR4absl18container_internal25internal_compressed_tuple7StorageImLm0ELb0EE3getEv(ptr noundef nonnull align 8 dereferenceable(8) %this) #7 comdat align 2 {
entry:
  %this.addr = alloca ptr, align 8
  store ptr %this, ptr %this.addr, align 8
  %this1 = load ptr, ptr %this.addr, align 8
  %value = getelementptr inbounds %"struct.absl::container_internal::internal_compressed_tuple::Storage", ptr %this1, i32 0, i32 0
  ret ptr %value
}

; Function Attrs: mustprogress nounwind uwtable
define linkonce_odr dso_local void @_ZN4absl18container_internal25internal_compressed_tuple19CompressedTupleImplINS0_15CompressedTupleIJmSaIN7testing13ThrowingValueILNS4_8TypeSpecE0EEEEEEESt16integer_sequenceImJLm0ELm1EEELb1EED2Ev(ptr noundef nonnull align 8 dereferenceable(8) %this) unnamed_addr #7 comdat align 2 {
entry:
  %this.addr = alloca ptr, align 8
  store ptr %this, ptr %this.addr, align 8
  %this1 = load ptr, ptr %this.addr, align 8
  call void @_ZN4absl18container_internal25internal_compressed_tuple7StorageISaIN7testing13ThrowingValueILNS3_8TypeSpecE0EEEELm1ELb1EED2Ev(ptr noundef nonnull align 1 dereferenceable(1) %this1) #3
  ret void
}

; Function Attrs: mustprogress nounwind uwtable
define linkonce_odr dso_local void @_ZNSt15__new_allocatorIN7testing13ThrowingValueILNS0_8TypeSpecE0EEEE10deallocateEPS3_m(ptr noundef nonnull align 1 dereferenceable(1) %this, ptr noundef %__p, i64 noundef %__n) #7 comdat align 2 {
entry:
  %this.addr = alloca ptr, align 8
  %__p.addr = alloca ptr, align 8
  %__n.addr = alloca i64, align 8
  store ptr %this, ptr %this.addr, align 8
  store ptr %__p, ptr %__p.addr, align 8
  store i64 %__n, ptr %__n.addr, align 8
  %0 = load ptr, ptr %__p.addr, align 8
  call void @_ZdlPv(ptr noundef %0) #16
  ret void
}

; Function Attrs: mustprogress nounwind uwtable
define linkonce_odr dso_local void @_ZN7testing13ThrowingValueILNS_8TypeSpecE0EED2Ev(ptr noundef nonnull align 4 dereferenceable(4) %this) unnamed_addr #7 comdat align 2 {
entry:
  %this.addr = alloca ptr, align 8
  store ptr %this, ptr %this.addr, align 8
  %this1 = load ptr, ptr %this.addr, align 8
  call void @_ZN7testing19exceptions_internal13TrackedObjectD2Ev(ptr noundef nonnull align 1 dereferenceable(1) %this1) #3
  ret void
}

; Function Attrs: mustprogress nounwind uwtable
define linkonce_odr dso_local noundef nonnull align 1 dereferenceable(1) ptr @_ZNR4absl18container_internal25internal_compressed_tuple7StorageISaIN7testing13ThrowingValueILNS3_8TypeSpecE0EEEELm1ELb1EE3getEv(ptr noundef nonnull align 1 dereferenceable(1) %this) #7 comdat align 2 {
entry:
  %this.addr = alloca ptr, align 8
  store ptr %this, ptr %this.addr, align 8
  %this1 = load ptr, ptr %this.addr, align 8
  ret ptr %this1
}

; Function Attrs: mustprogress uwtable
define linkonce_odr dso_local noundef nonnull align 8 dereferenceable(8) ptr @_ZNKR4absl18container_internal15CompressedTupleIJmSaIN7testing13ThrowingValueILNS2_8TypeSpecE0EEEEEE3getILi0EEERKNS0_25internal_compressed_tuple4ElemIS7_XT_EE4typeEv(ptr noundef nonnull align 8 dereferenceable(8) %this) #4 comdat align 2 {
entry:
  %this.addr = alloca ptr, align 8
  store ptr %this, ptr %this.addr, align 8
  %this1 = load ptr, ptr %this.addr, align 8
  %call = call noundef nonnull align 8 dereferenceable(8) ptr @_ZNKR4absl18container_internal25internal_compressed_tuple7StorageImLm0ELb0EE3getEv(ptr noundef nonnull align 8 dereferenceable(8) %this1)
  ret ptr %call
}

; Function Attrs: mustprogress nounwind uwtable
define linkonce_odr dso_local void @_ZN4absl18container_internal15CompressedTupleIJmSaIN7testing13ThrowingValueILNS2_8TypeSpecE0EEEEEED2Ev(ptr noundef nonnull align 8 dereferenceable(8) %this) unnamed_addr #7 comdat align 2 {
entry:
  %this.addr = alloca ptr, align 8
  store ptr %this, ptr %this.addr, align 8
  %this1 = load ptr, ptr %this.addr, align 8
  call void @_ZN4absl18container_internal25internal_compressed_tuple19CompressedTupleImplINS0_15CompressedTupleIJmSaIN7testing13ThrowingValueILNS4_8TypeSpecE0EEEEEEESt16integer_sequenceImJLm0ELm1EEELb1EED2Ev(ptr noundef nonnull align 8 dereferenceable(8) %this1) #3
  ret void
}

; Function Attrs: mustprogress uwtable
define linkonce_odr dso_local void @_ZNSt16allocator_traitsISaIN7testing13ThrowingValueILNS0_8TypeSpecE0EEEEE10deallocateERS4_PS3_m(ptr noundef nonnull align 1 dereferenceable(1) %__a, ptr noundef %__p, i64 noundef %__n) #4 comdat align 2 {
entry:
  %__a.addr = alloca ptr, align 8
  %__p.addr = alloca ptr, align 8
  %__n.addr = alloca i64, align 8
  store ptr %__a, ptr %__a.addr, align 8
  store ptr %__p, ptr %__p.addr, align 8
  store i64 %__n, ptr %__n.addr, align 8
  %0 = load ptr, ptr %__a.addr, align 8
  %1 = load ptr, ptr %__p.addr, align 8
  %2 = load i64, ptr %__n.addr, align 8
  call void @_ZNSt15__new_allocatorIN7testing13ThrowingValueILNS0_8TypeSpecE0EEEE10deallocateEPS3_m(ptr noundef nonnull align 1 dereferenceable(1) %0, ptr noundef %1, i64 noundef %2)
  ret void
}

; Function Attrs: mustprogress nounwind uwtable
define linkonce_odr dso_local noundef ptr @_ZN4absl10FixedArrayIN7testing13ThrowingValueILNS1_8TypeSpecE0EEELm25ESaIS4_EE11AsValueTypeEPS4_(ptr noundef %ptr) #7 comdat align 2 {
entry:
  %ptr.addr = alloca ptr, align 8
  store ptr %ptr, ptr %ptr.addr, align 8
  %0 = load ptr, ptr %ptr.addr, align 8
  ret ptr %0
}

; Function Attrs: mustprogress nounwind uwtable
define linkonce_odr dso_local void @_ZN4absl10FixedArrayIN7testing13ThrowingValueILNS1_8TypeSpecE0EEELm25ESaIS4_EE22NonEmptyInlinedStorage16AnnotateDestructEm(ptr noundef nonnull align 4 dereferenceable(100) %this, i64 noundef %n) #7 comdat align 2 {
entry:
  %this.addr = alloca ptr, align 8
  %n.addr = alloca i64, align 8
  store ptr %this, ptr %this.addr, align 8
  store i64 %n, ptr %n.addr, align 8
  ret void
}

; Function Attrs: mustprogress nounwind uwtable
define linkonce_odr dso_local noundef zeroext i1 @_ZN4absl10FixedArrayIN7testing13ThrowingValueILNS1_8TypeSpecE0EEELm25ESaIS4_EE7Storage19UsingInlinedStorageEm(i64 noundef %n) #7 comdat align 2 {
entry:
  %n.addr = alloca i64, align 8
  store i64 %n, ptr %n.addr, align 8
  %0 = load i64, ptr %n.addr, align 8
  %cmp = icmp ule i64 %0, 25
  ret i1 %cmp
}

; Function Attrs: mustprogress nounwind uwtable
define linkonce_odr dso_local void @_ZNSt15__new_allocatorIN7testing13ThrowingValueILNS0_8TypeSpecE0EEEE7destroyIS3_EEvPT_(ptr noundef nonnull align 1 dereferenceable(1) %this, ptr noundef %__p) #7 comdat align 2 {
entry:
  %this.addr = alloca ptr, align 8
  %__p.addr = alloca ptr, align 8
  store ptr %this, ptr %this.addr, align 8
  store ptr %__p, ptr %__p.addr, align 8
  %0 = load ptr, ptr %__p.addr, align 8
  call void @_ZN7testing13ThrowingValueILNS_8TypeSpecE0EED2Ev(ptr noundef nonnull align 4 dereferenceable(4) %0) #3
  ret void
}

; Function Attrs: mustprogress uwtable
define linkonce_odr dso_local noundef nonnull align 1 dereferenceable(1) ptr @_ZNR4absl18container_internal15CompressedTupleIJmSaIN7testing13ThrowingValueILNS2_8TypeSpecE0EEEEEE3getILi1EEERNS0_25internal_compressed_tuple4ElemIS7_XT_EE4typeEv(ptr noundef nonnull align 8 dereferenceable(8) %this) #4 comdat align 2 {
entry:
  %this.addr = alloca ptr, align 8
  store ptr %this, ptr %this.addr, align 8
  %this1 = load ptr, ptr %this.addr, align 8
  %call = call noundef nonnull align 1 dereferenceable(1) ptr @_ZNR4absl18container_internal25internal_compressed_tuple7StorageISaIN7testing13ThrowingValueILNS3_8TypeSpecE0EEEELm1ELb1EE3getEv(ptr noundef nonnull align 1 dereferenceable(1) %this1)
  ret ptr %call
}

; Function Attrs: mustprogress uwtable
define linkonce_odr dso_local noundef i64 @_ZNK4absl10FixedArrayIN7testing13ThrowingValueILNS1_8TypeSpecE0EEELm25ESaIS4_EE7Storage4sizeEv(ptr noundef nonnull align 8 dereferenceable(120) %this) #4 comdat align 2 {
entry:
  %this.addr = alloca ptr, align 8
  store ptr %this, ptr %this.addr, align 8
  %this1 = load ptr, ptr %this.addr, align 8
  %size_alloc_ = getelementptr inbounds %"class.absl::FixedArray<testing::ThrowingValue<testing::TypeSpec::kEverythingThrows>, 25>::Storage", ptr %this1, i32 0, i32 1
  %call = call noundef nonnull align 8 dereferenceable(8) ptr @_ZNKR4absl18container_internal15CompressedTupleIJmSaIN7testing13ThrowingValueILNS2_8TypeSpecE0EEEEEE3getILi0EEERKNS0_25internal_compressed_tuple4ElemIS7_XT_EE4typeEv(ptr noundef nonnull align 8 dereferenceable(8) %size_alloc_)
  %0 = load i64, ptr %call, align 8
  ret i64 %0
}

; Function Attrs: mustprogress nounwind uwtable
define linkonce_odr dso_local void @_ZN4absl10FixedArrayIN7testing13ThrowingValueILNS1_8TypeSpecE0EEELm25ESaIS4_EE7StorageD2Ev(ptr noundef nonnull align 8 dereferenceable(120) %this) unnamed_addr #7 comdat align 2 personality ptr @__gxx_personality_v0 {
entry:
  %this.addr = alloca ptr, align 8
  store ptr %this, ptr %this.addr, align 8
  %this1 = load ptr, ptr %this.addr, align 8
  %call = invoke noundef i64 @_ZNK4absl10FixedArrayIN7testing13ThrowingValueILNS1_8TypeSpecE0EEELm25ESaIS4_EE7Storage4sizeEv(ptr noundef nonnull align 8 dereferenceable(120) %this1)
          to label %invoke.cont unwind label %terminate.lpad

invoke.cont:                                      ; preds = %entry
  %call2 = call noundef zeroext i1 @_ZN4absl10FixedArrayIN7testing13ThrowingValueILNS1_8TypeSpecE0EEELm25ESaIS4_EE7Storage19UsingInlinedStorageEm(i64 noundef %call)
  br i1 %call2, label %if.then, label %if.else

if.then:                                          ; preds = %invoke.cont
  %call4 = invoke noundef i64 @_ZNK4absl10FixedArrayIN7testing13ThrowingValueILNS1_8TypeSpecE0EEELm25ESaIS4_EE7Storage4sizeEv(ptr noundef nonnull align 8 dereferenceable(120) %this1)
          to label %invoke.cont3 unwind label %terminate.lpad

invoke.cont3:                                     ; preds = %if.then
  invoke void @_ZN4absl10FixedArrayIN7testing13ThrowingValueILNS1_8TypeSpecE0EEELm25ESaIS4_EE22NonEmptyInlinedStorage16AnnotateDestructEm(ptr noundef nonnull align 4 dereferenceable(100) %this1, i64 noundef %call4)
          to label %invoke.cont5 unwind label %terminate.lpad

invoke.cont5:                                     ; preds = %invoke.cont3
  br label %if.end

if.else:                                          ; preds = %invoke.cont
  %call7 = invoke noundef nonnull align 1 dereferenceable(1) ptr @_ZN4absl10FixedArrayIN7testing13ThrowingValueILNS1_8TypeSpecE0EEELm25ESaIS4_EE7Storage5allocEv(ptr noundef nonnull align 8 dereferenceable(120) %this1)
          to label %invoke.cont6 unwind label %terminate.lpad

invoke.cont6:                                     ; preds = %if.else
  %call8 = call noundef ptr @_ZNK4absl10FixedArrayIN7testing13ThrowingValueILNS1_8TypeSpecE0EEELm25ESaIS4_EE7Storage5beginEv(ptr noundef nonnull align 8 dereferenceable(120) %this1)
  %call10 = invoke noundef ptr @_ZN4absl10FixedArrayIN7testing13ThrowingValueILNS1_8TypeSpecE0EEELm25ESaIS4_EE11AsValueTypeEPS4_(ptr noundef %call8)
          to label %invoke.cont9 unwind label %terminate.lpad

invoke.cont9:                                     ; preds = %invoke.cont6
  %call12 = invoke noundef i64 @_ZNK4absl10FixedArrayIN7testing13ThrowingValueILNS1_8TypeSpecE0EEELm25ESaIS4_EE7Storage4sizeEv(ptr noundef nonnull align 8 dereferenceable(120) %this1)
          to label %invoke.cont11 unwind label %terminate.lpad

invoke.cont11:                                    ; preds = %invoke.cont9
  invoke void @_ZNSt16allocator_traitsISaIN7testing13ThrowingValueILNS0_8TypeSpecE0EEEEE10deallocateERS4_PS3_m(ptr noundef nonnull align 1 dereferenceable(1) %call7, ptr noundef %call10, i64 noundef %call12)
          to label %invoke.cont13 unwind label %terminate.lpad

invoke.cont13:                                    ; preds = %invoke.cont11
  br label %if.end

if.end:                                           ; preds = %invoke.cont13, %invoke.cont5
  %size_alloc_ = getelementptr inbounds %"class.absl::FixedArray<testing::ThrowingValue<testing::TypeSpec::kEverythingThrows>, 25>::Storage", ptr %this1, i32 0, i32 1
  call void @_ZN4absl18container_internal15CompressedTupleIJmSaIN7testing13ThrowingValueILNS2_8TypeSpecE0EEEEEED2Ev(ptr noundef nonnull align 8 dereferenceable(8) %size_alloc_) #3
  ret void

terminate.lpad:                                   ; preds = %invoke.cont11, %invoke.cont9, %invoke.cont6, %if.else, %invoke.cont3, %if.then, %entry
  %0 = landingpad { ptr, i32 }
          catch ptr null
  %1 = extractvalue { ptr, i32 } %0, 0
  call void @__clang_call_terminate(ptr %1) #18
  unreachable
}

; Function Attrs: mustprogress nounwind uwtable
define linkonce_odr dso_local void @_ZNSt16allocator_traitsISaIN7testing13ThrowingValueILNS0_8TypeSpecE0EEEEE7destroyIS3_EEvRS4_PT_(ptr noundef nonnull align 1 dereferenceable(1) %__a, ptr noundef %__p) #7 comdat align 2 {
entry:
  %__a.addr = alloca ptr, align 8
  %__p.addr = alloca ptr, align 8
  store ptr %__a, ptr %__a.addr, align 8
  store ptr %__p, ptr %__p.addr, align 8
  %0 = load ptr, ptr %__a.addr, align 8
  %1 = load ptr, ptr %__p.addr, align 8
  call void @_ZNSt15__new_allocatorIN7testing13ThrowingValueILNS0_8TypeSpecE0EEEE7destroyIS3_EEvPT_(ptr noundef nonnull align 1 dereferenceable(1) %0, ptr noundef %1) #3
  ret void
}

; Function Attrs: mustprogress uwtable
define linkonce_odr dso_local noundef nonnull align 1 dereferenceable(1) ptr @_ZN4absl10FixedArrayIN7testing13ThrowingValueILNS1_8TypeSpecE0EEELm25ESaIS4_EE7Storage5allocEv(ptr noundef nonnull align 8 dereferenceable(120) %this) #4 comdat align 2 {
entry:
  %this.addr = alloca ptr, align 8
  store ptr %this, ptr %this.addr, align 8
  %this1 = load ptr, ptr %this.addr, align 8
  %size_alloc_ = getelementptr inbounds %"class.absl::FixedArray<testing::ThrowingValue<testing::TypeSpec::kEverythingThrows>, 25>::Storage", ptr %this1, i32 0, i32 1
  %call = call noundef nonnull align 1 dereferenceable(1) ptr @_ZNR4absl18container_internal15CompressedTupleIJmSaIN7testing13ThrowingValueILNS2_8TypeSpecE0EEEEEE3getILi1EEERNS0_25internal_compressed_tuple4ElemIS7_XT_EE4typeEv(ptr noundef nonnull align 8 dereferenceable(8) %size_alloc_)
  ret ptr %call
}

; Function Attrs: mustprogress uwtable
define linkonce_odr dso_local noundef ptr @_ZNK4absl10FixedArrayIN7testing13ThrowingValueILNS1_8TypeSpecE0EEELm25ESaIS4_EE7Storage3endEv(ptr noundef nonnull align 8 dereferenceable(120) %this) #4 comdat align 2 {
entry:
  %this.addr = alloca ptr, align 8
  store ptr %this, ptr %this.addr, align 8
  %this1 = load ptr, ptr %this.addr, align 8
  %call = call noundef ptr @_ZNK4absl10FixedArrayIN7testing13ThrowingValueILNS1_8TypeSpecE0EEELm25ESaIS4_EE7Storage5beginEv(ptr noundef nonnull align 8 dereferenceable(120) %this1)
  %call2 = call noundef i64 @_ZNK4absl10FixedArrayIN7testing13ThrowingValueILNS1_8TypeSpecE0EEELm25ESaIS4_EE7Storage4sizeEv(ptr noundef nonnull align 8 dereferenceable(120) %this1)
  %add.ptr = getelementptr inbounds %"class.testing::ThrowingValue", ptr %call, i64 %call2
  ret ptr %add.ptr
}

; Function Attrs: mustprogress nounwind uwtable
define linkonce_odr dso_local noundef ptr @_ZNK4absl10FixedArrayIN7testing13ThrowingValueILNS1_8TypeSpecE0EEELm25ESaIS4_EE7Storage5beginEv(ptr noundef nonnull align 8 dereferenceable(120) %this) #7 comdat align 2 {
entry:
  %this.addr = alloca ptr, align 8
  store ptr %this, ptr %this.addr, align 8
  %this1 = load ptr, ptr %this.addr, align 8
  %data_ = getelementptr inbounds %"class.absl::FixedArray<testing::ThrowingValue<testing::TypeSpec::kEverythingThrows>, 25>::Storage", ptr %this1, i32 0, i32 2
  %0 = load ptr, ptr %data_, align 8
  ret ptr %0
}

; Function Attrs: mustprogress nounwind uwtable
define linkonce_odr dso_local void @_ZN4absl10FixedArrayIN7testing13ThrowingValueILNS1_8TypeSpecE0EEELm25ESaIS4_EED2Ev(ptr noundef nonnull align 8 dereferenceable(120) %this) unnamed_addr #7 comdat align 2 personality ptr @__gxx_personality_v0 {
entry:
  %this.addr = alloca ptr, align 8
  %cur = alloca ptr, align 8
  store ptr %this, ptr %this.addr, align 8
  %this1 = load ptr, ptr %this.addr, align 8
  %storage_ = getelementptr inbounds %"class.absl::FixedArray", ptr %this1, i32 0, i32 0
  %call = call noundef ptr @_ZNK4absl10FixedArrayIN7testing13ThrowingValueILNS1_8TypeSpecE0EEELm25ESaIS4_EE7Storage5beginEv(ptr noundef nonnull align 8 dereferenceable(120) %storage_)
  store ptr %call, ptr %cur, align 8
  br label %for.cond

for.cond:                                         ; preds = %for.inc, %entry
  %0 = load ptr, ptr %cur, align 8
  %storage_2 = getelementptr inbounds %"class.absl::FixedArray", ptr %this1, i32 0, i32 0
  %call3 = invoke noundef ptr @_ZNK4absl10FixedArrayIN7testing13ThrowingValueILNS1_8TypeSpecE0EEELm25ESaIS4_EE7Storage3endEv(ptr noundef nonnull align 8 dereferenceable(120) %storage_2)
          to label %invoke.cont unwind label %terminate.lpad

invoke.cont:                                      ; preds = %for.cond
  %cmp = icmp ne ptr %0, %call3
  br i1 %cmp, label %for.body, label %for.end

for.body:                                         ; preds = %invoke.cont
  %storage_4 = getelementptr inbounds %"class.absl::FixedArray", ptr %this1, i32 0, i32 0
  %call6 = invoke noundef nonnull align 1 dereferenceable(1) ptr @_ZN4absl10FixedArrayIN7testing13ThrowingValueILNS1_8TypeSpecE0EEELm25ESaIS4_EE7Storage5allocEv(ptr noundef nonnull align 8 dereferenceable(120) %storage_4)
          to label %invoke.cont5 unwind label %terminate.lpad

invoke.cont5:                                     ; preds = %for.body
  %1 = load ptr, ptr %cur, align 8
  call void @_ZNSt16allocator_traitsISaIN7testing13ThrowingValueILNS0_8TypeSpecE0EEEEE7destroyIS3_EEvRS4_PT_(ptr noundef nonnull align 1 dereferenceable(1) %call6, ptr noundef %1) #3
  br label %for.inc

for.inc:                                          ; preds = %invoke.cont5
  %2 = load ptr, ptr %cur, align 8
  %incdec.ptr = getelementptr inbounds %"class.testing::ThrowingValue", ptr %2, i32 1
  store ptr %incdec.ptr, ptr %cur, align 8
  br label %for.cond, !llvm.loop !7

for.end:                                          ; preds = %invoke.cont
  %storage_7 = getelementptr inbounds %"class.absl::FixedArray", ptr %this1, i32 0, i32 0
  call void @_ZN4absl10FixedArrayIN7testing13ThrowingValueILNS1_8TypeSpecE0EEELm25ESaIS4_EE7StorageD2Ev(ptr noundef nonnull align 8 dereferenceable(120) %storage_7) #3
  ret void

terminate.lpad:                                   ; preds = %for.body, %for.cond
  %3 = landingpad { ptr, i32 }
          catch ptr null
  %4 = extractvalue { ptr, i32 } %3, 0
  call void @__clang_call_terminate(ptr %4) #18
  unreachable
}

; Function Attrs: mustprogress nounwind uwtable
define linkonce_odr dso_local void @_ZN7testing19exceptions_internal14DefaultFactoryIN4absl10FixedArrayINS_13ThrowingValueILNS_8TypeSpecE0EEELm25ESaIS6_EEEED2Ev(ptr noundef nonnull align 8 dereferenceable(120) %this) unnamed_addr #7 comdat align 2 {
entry:
  %this.addr = alloca ptr, align 8
  store ptr %this, ptr %this.addr, align 8
  %this1 = load ptr, ptr %this.addr, align 8
  %t_ = getelementptr inbounds %"class.testing::exceptions_internal::DefaultFactory", ptr %this1, i32 0, i32 0
  call void @_ZN4absl10FixedArrayIN7testing13ThrowingValueILNS1_8TypeSpecE0EEELm25ESaIS4_EED2Ev(ptr noundef nonnull align 8 dereferenceable(120) %t_) #3
  ret void
}

; Function Attrs: mustprogress nounwind uwtable
define internal void @"_ZN7testing19exceptions_internal26ExceptionSafetyTestBuilderINS0_14DefaultFactoryIN4absl10FixedArrayINS_13ThrowingValueILNS_8TypeSpecE0EEELm25ESaIS7_EEEEEZNS3_12_GLOBAL__N_135FixedArrayExceptionSafety_Fill_Test8TestBodyEvE3$_0JPFNS_15AssertionResultEPS9_EEED2Ev"(ptr noundef nonnull align 8 dereferenceable(136) %this) unnamed_addr #7 align 2 {
entry:
  %this.addr = alloca ptr, align 8
  store ptr %this, ptr %this.addr, align 8
  %this1 = load ptr, ptr %this.addr, align 8
  %factory_ = getelementptr inbounds %"class.testing::exceptions_internal::ExceptionSafetyTestBuilder.109", ptr %this1, i32 0, i32 0
  call void @_ZN7testing19exceptions_internal14DefaultFactoryIN4absl10FixedArrayINS_13ThrowingValueILNS_8TypeSpecE0EEELm25ESaIS6_EEEED2Ev(ptr noundef nonnull align 8 dereferenceable(120) %factory_) #3
  ret void
}