; Function Attrs: mustprogress nounwind uwtable
define internal fastcc void @"_ZN7testing19exceptions_internal26ExceptionSafetyTestBuilderINS0_14DefaultFactoryIN4absl10FixedArrayINS_13ThrowingValueILNS_8TypeSpecE0EEELm25ESaIS7_EEEEEZNS3_12_GLOBAL__N_135FixedArrayExceptionSafety_Fill_Test8TestBodyEvE3$_0JPFNS_15AssertionResultEPS9_EEED2Ev"(ptr nocapture noundef nonnull readonly align 8 dereferenceable(136) %this) unnamed_addr #7 align 2 personality ptr @__gxx_personality_v0 {
entry:
  %data_.i.i.i = getelementptr inbounds i8, ptr %this, i64 112
  %size_alloc_.i.i.i.i = getelementptr inbounds i8, ptr %this, i64 104
  %0 = load i64, ptr %size_alloc_.i.i.i.i, align 8
  %cmp.not9.i.i = icmp eq i64 %0, 0
  br i1 %cmp.not9.i.i, label %_ZN7testing19exceptions_internal14DefaultFactoryIN4absl10FixedArrayINS_13ThrowingValueILNS_8TypeSpecE0EEELm25ESaIS6_EEEED2Ev.exit, label %invoke.cont5.i.preheader.i

invoke.cont5.i.preheader.i:                       ; preds = %entry
  %1 = load ptr, ptr %data_.i.i.i, align 8
  br label %invoke.cont5.i.i

invoke.cont5.i.i:                                 ; preds = %_ZNSt16allocator_traitsISaIN7testing13ThrowingValueILNS0_8TypeSpecE0EEEEE7destroyIS3_EEvRS4_PT_.exit.i.i, %invoke.cont5.i.preheader.i
  %cur.010.i.i = phi ptr [ %incdec.ptr.i.i, %_ZNSt16allocator_traitsISaIN7testing13ThrowingValueILNS0_8TypeSpecE0EEEEE7destroyIS3_EEvRS4_PT_.exit.i.i ], [ %1, %invoke.cont5.i.preheader.i ]
  invoke void @_ZN7testing19exceptions_internal18ConstructorTracker16ObjectDestructedEPv(ptr noundef nonnull %cur.010.i.i)
          to label %_ZNSt16allocator_traitsISaIN7testing13ThrowingValueILNS0_8TypeSpecE0EEEEE7destroyIS3_EEvRS4_PT_.exit.i.i unwind label %terminate.lpad.i.i.i.i.i.i

terminate.lpad.i.i.i.i.i.i:                       ; preds = %invoke.cont5.i.i
  %2 = landingpad { ptr, i32 }
          catch ptr null
  %3 = extractvalue { ptr, i32 } %2, 0
  tail call void @__clang_call_terminate(ptr %3) #21
  unreachable

_ZNSt16allocator_traitsISaIN7testing13ThrowingValueILNS0_8TypeSpecE0EEEEE7destroyIS3_EEvRS4_PT_.exit.i.i: ; preds = %invoke.cont5.i.i
  %incdec.ptr.i.i = getelementptr inbounds i8, ptr %cur.010.i.i, i64 4
  %4 = load ptr, ptr %data_.i.i.i, align 8
  %5 = load i64, ptr %size_alloc_.i.i.i.i, align 8
  %add.ptr.i.i.i = getelementptr inbounds %"class.testing::ThrowingValue", ptr %4, i64 %5
  %cmp.not.i.i = icmp eq ptr %incdec.ptr.i.i, %add.ptr.i.i.i
  br i1 %cmp.not.i.i, label %for.end.i.i, label %invoke.cont5.i.i, !llvm.loop !5

for.end.i.i:                                      ; preds = %_ZNSt16allocator_traitsISaIN7testing13ThrowingValueILNS0_8TypeSpecE0EEEEE7destroyIS3_EEvRS4_PT_.exit.i.i
  %6 = icmp ult i64 %5, 26
  br i1 %6, label %_ZN7testing19exceptions_internal14DefaultFactoryIN4absl10FixedArrayINS_13ThrowingValueILNS_8TypeSpecE0EEELm25ESaIS6_EEEED2Ev.exit, label %invoke.cont11.i.i.i

invoke.cont11.i.i.i:                              ; preds = %for.end.i.i
  tail call void @_ZdlPv(ptr noundef %4) #19
  br label %_ZN7testing19exceptions_internal14DefaultFactoryIN4absl10FixedArrayINS_13ThrowingValueILNS_8TypeSpecE0EEELm25ESaIS6_EEEED2Ev.exit

_ZN7testing19exceptions_internal14DefaultFactoryIN4absl10FixedArrayINS_13ThrowingValueILNS_8TypeSpecE0EEELm25ESaIS6_EEEED2Ev.exit: ; preds = %entry, %for.end.i.i, %invoke.cont11.i.i.i
  ret void
}